; Function Attrs: nounwind uwtable
define void @rotateX(ptr noundef readonly byval(%struct.Qureg) align 8 captures(none) %0, i32 noundef %1, double noundef %2) local_unnamed_addr #0 {
  tail call void @validateTarget(ptr noundef nonnull byval(%struct.Qureg) align 8 %0, i32 noundef %1, ptr noundef nonnull @__func__.rotateX) #17
  tail call void @statevec_rotateX(ptr noundef nonnull byval(%struct.Qureg) align 8 %0, i32 noundef %1, double noundef %2) #17
  %4 = load i32, ptr %0, align 8, !tbaa !12
  %.not = icmp eq i32 %4, 0
  br i1 %.not, label %10, label %5

5:                                                ; preds = %3
  %6 = getelementptr inbounds nuw i8, ptr %0, i64 4
  %7 = load i32, ptr %6, align 4, !tbaa !17
  %8 = add nsw i32 %7, %1
  %9 = fneg double %2
  tail call void @statevec_rotateX(ptr noundef nonnull byval(%struct.Qureg) align 8 %0, i32 noundef %8, double noundef %9) #17
  br label %10

10:                                               ; preds = %5, %3
  tail call void @qasm_recordParamGate(ptr noundef nonnull byval(%struct.Qureg) align 8 %0, i32 noundef 6, i32 noundef %1, double noundef %2) #17
  ret void
}